target datalayout = "e-m:e-p270:32:32-p271:32:32-p272:64:64-i64:64-i128:128-f80:128-n8:16:32:64-S128"
target triple = "x86_64-pc-linux-gnu"

%struct.H5O_shared_t = type { i32, ptr, i32, %union.anon }
%union.anon = type { %struct.H5O_mesg_loc_t }
%struct.H5O_mesg_loc_t = type { i32, i64 }
%struct.H5T_t = type { %struct.H5O_shared_t, ptr, %struct.H5O_loc_t, %struct.H5G_name_t, ptr }
%struct.H5O_loc_t = type { ptr, i64, i8 }
%struct.H5G_name_t = type { ptr, ptr, i32 }

@.str.1 = private unnamed_addr constant [103 x i8] c"generated/home/dtcxzyw/WorkSpace/Projects/compilers/llvm-opt-benchmark/bench/hdf5/hdf5/src/H5Oshared.h\00", align 1
@H5E_OHDR_g = external global i64, align 8
@.str.4 = private unnamed_addr constant [102 x i8] c"generated/home/dtcxzyw/WorkSpace/Projects/compilers/llvm-opt-benchmark/bench/hdf5/hdf5/src/H5Odtype.c\00", align 1
@H5E_DATATYPE_g = external global i64, align 8
@H5E_CANTCOPY_g = external global i64, align 8
@H5E_CANTINIT_g = external global i64, align 8
@H5E_WRITEERROR_g = external global i64, align 8
@__func__.H5O__dtype_shared_post_copy_file = private unnamed_addr constant [33 x i8] c"H5O__dtype_shared_post_copy_file\00", align 1
@.str.76 = private unnamed_addr constant [42 x i8] c"unable to fix shared message in post copy\00", align 1
@.str.77 = private unnamed_addr constant [32 x i8] c"unable to update native message\00", align 1
@__func__.H5O__dtype_shared_post_copy_upd = private unnamed_addr constant [32 x i8] c"H5O__dtype_shared_post_copy_upd\00", align 1
@.str.78 = private unnamed_addr constant [25 x i8] c"unable to reset location\00", align 1

; Function Attrs: nounwind uwtable
define internal i32 @H5O__dtype_shared_post_copy_upd(ptr noundef %0, ptr noundef %1, ptr noundef %2, ptr noundef %3, ptr noundef %4) #0 {
  %6 = alloca ptr, align 8
  %7 = alloca ptr, align 8
  %8 = alloca ptr, align 8
  %9 = alloca ptr, align 8
  %10 = alloca ptr, align 8
  %11 = alloca ptr, align 8
  %12 = alloca i32, align 4
  %13 = alloca i8, align 1
  store ptr %0, ptr %6, align 8
  store ptr %1, ptr %7, align 8
  store ptr %2, ptr %8, align 8
  store ptr %3, ptr %9, align 8
  store ptr %4, ptr %10, align 8
  %14 = load ptr, ptr %9, align 8
  store ptr %14, ptr %11, align 8
  store i32 0, ptr %12, align 4
  store i8 0, ptr %13, align 1
  %15 = load ptr, ptr %11, align 8
  %16 = getelementptr inbounds %struct.H5T_t, ptr %15, i32 0, i32 0
  %17 = getelementptr inbounds %struct.H5O_shared_t, ptr %16, i32 0, i32 0
  %18 = load i32, ptr %17, align 8
  %19 = icmp eq i32 %18, 2
  br i1 %19, label %20, label %56

20:                                               ; preds = %5
  %21 = load ptr, ptr %11, align 8
  %22 = getelementptr inbounds %struct.H5T_t, ptr %21, i32 0, i32 2
  %23 = call i32 @H5O_loc_reset(ptr noundef %22)
  %24 = icmp slt i32 %23, 0
  br i1 %24, label %25, label %40

25:                                               ; preds = %20
  br label %26

26:                                               ; preds = %25
  br label %27

27:                                               ; preds = %26
  br label %28

28:                                               ; preds = %27
  %29 = load i64, ptr @H5E_DATATYPE_g, align 8
  %30 = load i64, ptr @H5E_CANTINIT_g, align 8
  %31 = call i32 (ptr, ptr, i32, i64, i64, ptr, ...) @H5E_printf_stack(ptr noundef @.str.4, ptr noundef @__func__.H5O__dtype_shared_post_copy_upd, i32 noundef 1911, i64 noundef %29, i64 noundef %30, ptr noundef @.str.78)
  br label %32

32:                                               ; preds = %28
  store i8 1, ptr %13, align 1
  %33 = load i8, ptr %13, align 1
  %34 = trunc i8 %33 to i1
  %35 = zext i1 %34 to i8
  store i8 %35, ptr %13, align 1
  br label %36

36:                                               ; preds = %32
  br label %37

37:                                               ; preds = %36
  store i32 -1, ptr %12, align 4
  br label %58

38:                                               ; No predecessors!
  br label %39

39:                                               ; preds = %38
  br label %40

40:                                               ; preds = %39, %20
  %41 = load ptr, ptr %11, align 8
  %42 = getelementptr inbounds %struct.H5T_t, ptr %41, i32 0, i32 0
  %43 = getelementptr inbounds %struct.H5O_shared_t, ptr %42, i32 0, i32 1
  %44 = load ptr, ptr %43, align 8
  %45 = load ptr, ptr %11, align 8
  %46 = getelementptr inbounds %struct.H5T_t, ptr %45, i32 0, i32 2
  %47 = getelementptr inbounds %struct.H5O_loc_t, ptr %46, i32 0, i32 0
  store ptr %44, ptr %47, align 8
  %48 = load ptr, ptr %11, align 8
  %49 = getelementptr inbounds %struct.H5T_t, ptr %48, i32 0, i32 0
  %50 = getelementptr inbounds %struct.H5O_shared_t, ptr %49, i32 0, i32 3
  %51 = getelementptr inbounds %struct.H5O_mesg_loc_t, ptr %50, i32 0, i32 1
  %52 = load i64, ptr %51, align 8
  %53 = load ptr, ptr %11, align 8
  %54 = getelementptr inbounds %struct.H5T_t, ptr %53, i32 0, i32 2
  %55 = getelementptr inbounds %struct.H5O_loc_t, ptr %54, i32 0, i32 1
  store i64 %52, ptr %55, align 8
  br label %57

56:                                               ; preds = %5
  br label %57

57:                                               ; preds = %56, %40
  br label %58

58:                                               ; preds = %57, %37
  %59 = load i32, ptr %12, align 4
  ret i32 %59
}

; Function Attrs: nounwind uwtable
define internal i32 @H5O__dtype_shared_post_copy_file(ptr noundef %0, ptr noundef %1, ptr noundef %2, ptr noundef %3, ptr noundef %4, ptr noundef %5) #0 {
  %7 = alloca ptr, align 8
  %8 = alloca ptr, align 8
  %9 = alloca ptr, align 8
  %10 = alloca ptr, align 8
  %11 = alloca ptr, align 8
  %12 = alloca ptr, align 8
  %13 = alloca ptr, align 8
  %14 = alloca ptr, align 8
  %15 = alloca i32, align 4
  %16 = alloca i8, align 1
  store ptr %0, ptr %7, align 8
  store ptr %1, ptr %8, align 8
  store ptr %2, ptr %9, align 8
  store ptr %3, ptr %10, align 8
  store ptr %4, ptr %11, align 8
  store ptr %5, ptr %12, align 8
  %17 = load ptr, ptr %8, align 8
  store ptr %17, ptr %13, align 8
  %18 = load ptr, ptr %10, align 8
  store ptr %18, ptr %14, align 8
  store i32 0, ptr %15, align 4
  store i8 0, ptr %16, align 1
  %19 = load ptr, ptr %9, align 8
  %20 = getelementptr inbounds %struct.H5O_loc_t, ptr %19, i32 0, i32 0
  %21 = load ptr, ptr %20, align 8
  %22 = load ptr, ptr %13, align 8
  %23 = load ptr, ptr %14, align 8
  %24 = load ptr, ptr %11, align 8
  %25 = load ptr, ptr %12, align 8
  %26 = call i32 @H5O__shared_post_copy_file(ptr noundef %21, ptr noundef @H5O_MSG_DTYPE, ptr noundef %22, ptr noundef %23, ptr noundef %24, ptr noundef %25)
  %27 = icmp slt i32 %26, 0
  br i1 %27, label %28, label %43

28:                                               ; preds = %6
  br label %29

29:                                               ; preds = %28
  br label %30

30:                                               ; preds = %29
  br label %31

31:                                               ; preds = %30
  %32 = load i64, ptr @H5E_OHDR_g, align 8
  %33 = load i64, ptr @H5E_WRITEERROR_g, align 8
  %34 = call i32 (ptr, ptr, i32, i64, i64, ptr, ...) @H5E_printf_stack(ptr noundef @.str.1, ptr noundef @__func__.H5O__dtype_shared_post_copy_file, i32 noundef 376, i64 noundef %32, i64 noundef %33, ptr noundef @.str.76)
  br label %35

35:                                               ; preds = %31
  store i8 1, ptr %16, align 1
  %36 = load i8, ptr %16, align 1
  %37 = trunc i8 %36 to i1
  %38 = zext i1 %37 to i8
  store i8 %38, ptr %16, align 1
  br label %39

39:                                               ; preds = %35
  br label %40

40:                                               ; preds = %39
  store i32 -1, ptr %15, align 4
  br label %67

41:                                               ; No predecessors!
  br label %42

42:                                               ; preds = %41
  br label %43

43:                                               ; preds = %42, %6
  %44 = load ptr, ptr %7, align 8
  %45 = load ptr, ptr %8, align 8
  %46 = load ptr, ptr %9, align 8
  %47 = load ptr, ptr %10, align 8
  %48 = load ptr, ptr %12, align 8
  %49 = call i32 @H5O__dtype_shared_post_copy_upd(ptr noundef %44, ptr noundef %45, ptr noundef %46, ptr noundef %47, ptr noundef %48)
  %50 = icmp slt i32 %49, 0
  br i1 %50, label %51, label %66

51:                                               ; preds = %43
  br label %52

52:                                               ; preds = %51
  br label %53

53:                                               ; preds = %52
  br label %54

54:                                               ; preds = %53
  %55 = load i64, ptr @H5E_OHDR_g, align 8
  %56 = load i64, ptr @H5E_CANTCOPY_g, align 8
  %57 = call i32 (ptr, ptr, i32, i64, i64, ptr, ...) @H5E_printf_stack(ptr noundef @.str.1, ptr noundef @__func__.H5O__dtype_shared_post_copy_file, i32 noundef 382, i64 noundef %55, i64 noundef %56, ptr noundef @.str.77)
  br label %58

58:                                               ; preds = %54
  store i8 1, ptr %16, align 1
  %59 = load i8, ptr %16, align 1
  %60 = trunc i8 %59 to i1
  %61 = zext i1 %60 to i8
  store i8 %61, ptr %16, align 1
  br label %62

62:                                               ; preds = %58
  br label %63

63:                                               ; preds = %62
  store i32 -1, ptr %15, align 4
  br label %67

64:                                               ; No predecessors!
  br label %65

65:                                               ; preds = %64
  br label %66

66:                                               ; preds = %65, %43
  br label %67

67:                                               ; preds = %66, %63, %40
  %68 = load i32, ptr %15, align 4
  ret i32 %68
}