; Function Attrs: nounwind uwtable
define internal range(i32 -1, 1) i32 @H5O__dtype_shared_post_copy_file(ptr nocapture readnone %0, ptr noundef %1, ptr nocapture noundef readonly %2, ptr noundef %3, ptr noundef %4, ptr noundef %5) #0 {
  %7 = load ptr, ptr %2, align 8
  %8 = tail call i32 @H5O__shared_post_copy_file(ptr noundef %7, ptr noundef nonnull @H5O_MSG_DTYPE, ptr noundef %1, ptr noundef %3, ptr noundef %4, ptr noundef %5) #15
  %9 = icmp slt i32 %8, 0
  br i1 %9, label %10, label %14

10:                                               ; preds = %6
  %11 = load i64, ptr @H5E_OHDR_g, align 8
  %12 = load i64, ptr @H5E_WRITEERROR_g, align 8
  %13 = tail call i32 (ptr, ptr, i32, i64, i64, ptr, ...) @H5E_printf_stack(ptr noundef nonnull @.str.1, ptr noundef nonnull @__func__.H5O__dtype_shared_post_copy_file, i32 noundef 376, i64 noundef %11, i64 noundef %12, ptr noundef nonnull @.str.76) #15
  br label %H5O__dtype_shared_post_copy_upd.exit.thread

14:                                               ; preds = %6
  %15 = load i32, ptr %3, align 8
  %16 = icmp eq i32 %15, 2
  br i1 %16, label %17, label %H5O__dtype_shared_post_copy_upd.exit.thread

17:                                               ; preds = %14
  %18 = getelementptr inbounds i8, ptr %3, i64 48
  %19 = tail call i32 @H5O_loc_reset(ptr noundef nonnull %18) #15
  %20 = icmp slt i32 %19, 0
  br i1 %20, label %27, label %21

21:                                               ; preds = %17
  %22 = getelementptr inbounds i8, ptr %3, i64 8
  %23 = load ptr, ptr %22, align 8
  store ptr %23, ptr %18, align 8
  %24 = getelementptr inbounds i8, ptr %3, i64 32
  %25 = load i64, ptr %24, align 8
  %26 = getelementptr inbounds i8, ptr %3, i64 56
  store i64 %25, ptr %26, align 8
  br label %H5O__dtype_shared_post_copy_upd.exit.thread

27:                                               ; preds = %17
  %28 = load i64, ptr @H5E_DATATYPE_g, align 8
  %29 = load i64, ptr @H5E_CANTINIT_g, align 8
  %30 = tail call i32 (ptr, ptr, i32, i64, i64, ptr, ...) @H5E_printf_stack(ptr noundef nonnull @.str.4, ptr noundef nonnull @__func__.H5O__dtype_shared_post_copy_upd, i32 noundef 1911, i64 noundef %28, i64 noundef %29, ptr noundef nonnull @.str.78) #15
  %31 = load i64, ptr @H5E_OHDR_g, align 8
  %32 = load i64, ptr @H5E_CANTCOPY_g, align 8
  %33 = tail call i32 (ptr, ptr, i32, i64, i64, ptr, ...) @H5E_printf_stack(ptr noundef nonnull @.str.1, ptr noundef nonnull @__func__.H5O__dtype_shared_post_copy_file, i32 noundef 382, i64 noundef %31, i64 noundef %32, ptr noundef nonnull @.str.77) #15
  br label %H5O__dtype_shared_post_copy_upd.exit.thread

H5O__dtype_shared_post_copy_upd.exit.thread:      ; preds = %14, %21, %27, %10
  %.0 = phi i32 [ -1, %10 ], [ -1, %27 ], [ 0, %21 ], [ 0, %14 ]
  ret i32 %.0
}